Certificate:
    Data:
        Version: 3 (0x2)
        Serial Number: 1 (0x1)
        Signature Algorithm: md5WithRSAEncryption
        Issuer: C=FR, ST=Radius, L=Somewhere, O=Example Inc./emailAddress=admin@example.com, CN=Example Certificate Authority
        Validity
            Not Before: Jul  5 11:52:47 2010 GMT
            Not After : Jul  5 11:52:47 2011 GMT
        Subject: C=FR, ST=Radius, O=Example Inc., CN=Example Server Certificate/emailAddress=admin@example.com
        Subject Public Key Info:
            Public Key Algorithm: rsaEncryption
            RSA Public Key: (2048 bit)
                Modulus (2048 bit):
                    00:b8:10:dd:0f:b7:ff:72:ec:99:a4:d7:a4:6b:da:
                    2f:26:57:e3:2b:47:bb:1f:d6:c9:58:1c:59:77:e8:
                    09:45:04:b3:38:2b:11:b2:0f:7f:3b:0a:d2:3d:f1:
                    ee:eb:2e:a7:6f:c2:2c:e9:4b:76:b8:11:13:21:dc:
                    ec:d7:2d:3c:4a:01:7d:84:31:09:67:71:76:3f:7c:
                    8b:93:1b:09:47:fa:c9:80:08:d2:a8:9f:7f:c1:8a:
                    68:63:29:c0:4b:61:eb:b3:63:b5:82:1b:64:29:46:
                    f0:30:45:7c:67:d0:86:92:71:94:08:03:c0:98:9e:
                    2e:5c:cd:9a:1e:13:47:d5:f9:f4:e4:6b:0f:96:b0:
                    c3:d5:75:59:f4:5c:d4:70:e9:f3:4d:12:c1:49:4c:
                    f2:86:28:9f:b2:23:dc:b6:1c:2d:9b:27:34:16:ef:
                    57:f8:2e:82:70:1c:94:26:8c:8a:af:6c:34:09:a8:
                    cb:a3:29:6d:91:b9:3a:ec:48:54:63:ae:90:66:6a:
                    dc:ea:8d:be:f9:87:0f:c1:ab:bc:3a:44:8b:f6:4c:
                    47:76:d6:96:18:9a:db:b2:c8:46:d1:2a:83:7e:46:
                    67:4e:24:2b:4c:26:a1:3b:80:12:88:ba:47:d9:b6:
                    00:ad:4a:60:01:9c:10:1e:37:0c:c1:c3:c9:0e:97:
                    c0:5b
                Exponent: 65537 (0x10001)
        X509v3 extensions:
            X509v3 Extended Key Usage: 
                TLS Web Server Authentication
    Signature Algorithm: md5WithRSAEncryption
        97:93:81:27:1f:b0:74:08:3f:92:e2:4c:6f:fa:7a:cf:34:b9:
        68:de:33:af:91:c0:11:e2:7b:3a:5c:cc:43:4c:66:0a:d9:f9:
        fc:cb:53:7c:4f:35:f6:86:bd:bd:19:06:f7:00:1b:af:ee:4a:
        66:b1:ec:1b:5a:21:7b:04:8e:7c:35:09:08:f0:ee:63:de:6e:
        37:0b:82:7d:01:ed:8a:4f:8e:79:d6:1d:d3:24:0f:11:a3:ee:
        cd:2f:cb:25:2c:33:27:b3:81:bc:5e:21:1d:10:0d:e8:a4:ad:
        68:3d:bb:15:ba:5d:37:2e:b6:b1:35:c7:5a:c2:65:1a:73:40:
        a8:29:2d:67:79:7b:b5:4c:f0:4a:f1:73:ff:df:2b:18:52:ac:
        ca:d7:96:5f:5c:2f:8e:c7:93:2e:1b:94:71:68:ff:7a:d4:79:
        91:19:c3:b6:9e:63:18:9f:1a:bf:e8:94:b5:32:3b:42:63:de:
        5a:d3:6a:41:ac:d9:80:b1:f8:d4:da:2f:61:89:03:97:15:94:
        60:f4:56:06:b7:0d:c2:62:7d:3c:a2:03:c0:a6:ee:b8:d4:5f:
        87:43:c7:73:74:de:5e:34:25:a3:83:0f:f8:96:41:37:01:8e:
        da:8f:69:76:bf:54:4d:2f:35:f8:b0:5c:59:3a:f4:95:42:1c:
        ed:fb:3c:e0
-----BEGIN CERTIFICATE-----
MIIDojCCAoqgAwIBAgIBATANBgkqhkiG9w0BAQQFADCBkzELMAkGA1UEBhMCRlIx
DzANBgNVBAgTBlJhZGl1czESMBAGA1UEBxMJU29tZXdoZXJlMRUwEwYDVQQKEwxF
eGFtcGxlIEluYy4xIDAeBgkqhkiG9w0BCQEWEWFkbWluQGV4YW1wbGUuY29tMSYw
JAYDVQQDEx1FeGFtcGxlIENlcnRpZmljYXRlIEF1dGhvcml0eTAeFw0xMDA3MDUx
MTUyNDdaFw0xMTA3MDUxMTUyNDdaMHwxCzAJBgNVBAYTAkZSMQ8wDQYDVQQIEwZS
YWRpdXMxFTATBgNVBAoTDEV4YW1wbGUgSW5jLjEjMCEGA1UEAxMaRXhhbXBsZSBT
ZXJ2ZXIgQ2VydGlmaWNhdGUxIDAeBgkqhkiG9w0BCQEWEWFkbWluQGV4YW1wbGUu
Y29tMIIBIjANBgkqhkiG9w0BAQEFAAOCAQ8AMIIBCgKCAQEAuBDdD7f/cuyZpNek
a9ovJlfjK0e7H9bJWBxZd+gJRQSzOCsRsg9/OwrSPfHu6y6nb8Is6Ut2uBETIdzs
1y08SgF9hDEJZ3F2P3yLkxsJR/rJgAjSqJ9/wYpoYynAS2Hrs2O1ghtkKUbwMEV8
Z9CGknGUCAPAmJ4uXM2aHhNH1fn05GsPlrDD1XVZ9FzUcOnzTRLBSUzyhiifsiPc
thwtmyc0Fu9X+C6CcByUJoyKr2w0CajLoyltkbk67EhUY66QZmrc6o2++YcPwau8
OkSL9kxHdtaWGJrbsshG0SqDfkZnTiQrTCahO4ASiLpH2bYArUpgAZwQHjcMwcPJ
DpfAWwIDAQABoxcwFTATBgNVHSUEDDAKBggrBgEFBQcDATANBgkqhkiG9w0BAQQF
AAOCAQEAl5OBJx+wdAg/kuJMb/p6zzS5aN4zr5HAEeJ7OlzMQ0xmCtn5/MtTfE81
9oa9vRkG9wAbr+5KZrHsG1ohewSOfDUJCPDuY95uNwuCfQHtik+OedYd0yQPEaPu
zS/LJSwzJ7OBvF4hHRAN6KStaD27FbpdNy62sTXHWsJlGnNAqCktZ3l7tUzwSvFz
/98rGFKsyteWX1wvjseTLhuUcWj/etR5kRnDtp5jGJ8av+iUtTI7QmPeWtNqQazZ
gLH41NovYYkDlxWUYPRWBrcNwmJ9PKIDwKbuuNRfh0PHc3TeXjQlo4MP+JZBNwGO
2o9pdr9UTS81+LBcWTr0lUIc7fs84A==
-----END CERTIFICATE-----
